target datalayout = "e-m:e-p270:32:32-p271:32:32-p272:64:64-i64:64-i128:128-f80:128-n8:16:32:64-S128"
target triple = "x86_64-pc-linux-gnu"

%struct.AVBSFContext = type { ptr, ptr, ptr, ptr, ptr, %struct.AVRational, %struct.AVRational }
%struct.AVRational = type { i32, i32 }
%struct.ExtractExtradataContext = type { ptr, ptr, %struct.AV1Packet, %struct.H2645Packet, i32 }
%struct.AV1Packet = type { ptr, i32, i32, i32 }
%struct.H2645Packet = type { ptr, %struct.H2645RBSP, i32, i32, i32 }
%struct.H2645RBSP = type { ptr, ptr, i32, i32 }
%struct.AVPacket = type { ptr, i64, i64, ptr, i32, i32, i32, ptr, i32, i64, i64, ptr, ptr, %struct.AVRational }

; Function Attrs: nounwind uwtable
define internal i32 @extract_extradata_mpeg4(ptr noundef %0, ptr noundef %1, ptr noundef %2, ptr noundef %3) #0 {
  %5 = alloca i32, align 4
  %6 = alloca ptr, align 8
  %7 = alloca ptr, align 8
  %8 = alloca ptr, align 8
  %9 = alloca ptr, align 8
  %10 = alloca ptr, align 8
  %11 = alloca ptr, align 8
  %12 = alloca ptr, align 8
  %13 = alloca i32, align 4
  %14 = alloca i32, align 4
  store ptr %0, ptr %6, align 8, !tbaa !4
  store ptr %1, ptr %7, align 8, !tbaa !39
  store ptr %2, ptr %8, align 8, !tbaa !42
  store ptr %3, ptr %9, align 8, !tbaa !45
  call void @llvm.lifetime.start.p0(i64 8, ptr %10) #9
  %15 = load ptr, ptr %6, align 8, !tbaa !4
  %16 = getelementptr inbounds nuw %struct.AVBSFContext, ptr %15, i32 0, i32 2
  %17 = load ptr, ptr %16, align 8, !tbaa !9
  store ptr %17, ptr %10, align 8, !tbaa !16
  call void @llvm.lifetime.start.p0(i64 8, ptr %11) #9
  %18 = load ptr, ptr %7, align 8, !tbaa !39
  %19 = getelementptr inbounds nuw %struct.AVPacket, ptr %18, i32 0, i32 3
  %20 = load ptr, ptr %19, align 8, !tbaa !47
  store ptr %20, ptr %11, align 8, !tbaa !41
  call void @llvm.lifetime.start.p0(i64 8, ptr %12) #9
  %21 = load ptr, ptr %7, align 8, !tbaa !39
  %22 = getelementptr inbounds nuw %struct.AVPacket, ptr %21, i32 0, i32 3
  %23 = load ptr, ptr %22, align 8, !tbaa !47
  %24 = load ptr, ptr %7, align 8, !tbaa !39
  %25 = getelementptr inbounds nuw %struct.AVPacket, ptr %24, i32 0, i32 4
  %26 = load i32, ptr %25, align 8, !tbaa !49
  %27 = sext i32 %26 to i64
  %28 = getelementptr inbounds i8, ptr %23, i64 %27
  store ptr %28, ptr %12, align 8, !tbaa !41
  call void @llvm.lifetime.start.p0(i64 4, ptr %13) #9
  store i32 -1, ptr %13, align 4, !tbaa !18
  br label %29

29:                                               ; preds = %101, %4
  %30 = load ptr, ptr %11, align 8, !tbaa !41
  %31 = load ptr, ptr %12, align 8, !tbaa !41
  %32 = icmp ult ptr %30, %31
  br i1 %32, label %33, label %102

33:                                               ; preds = %29
  %34 = load ptr, ptr %11, align 8, !tbaa !41
  %35 = load ptr, ptr %12, align 8, !tbaa !41
  %36 = call ptr @avpriv_find_start_code(ptr noundef %34, ptr noundef %35, ptr noundef %13)
  store ptr %36, ptr %11, align 8, !tbaa !41
  %37 = load i32, ptr %13, align 4, !tbaa !18
  %38 = icmp eq i32 %37, 435
  br i1 %38, label %42, label %39

39:                                               ; preds = %33
  %40 = load i32, ptr %13, align 4, !tbaa !18
  %41 = icmp eq i32 %40, 438
  br i1 %41, label %42, label %101

42:                                               ; preds = %39, %33
  %43 = load ptr, ptr %11, align 8, !tbaa !41
  %44 = load ptr, ptr %7, align 8, !tbaa !39
  %45 = getelementptr inbounds nuw %struct.AVPacket, ptr %44, i32 0, i32 3
  %46 = load ptr, ptr %45, align 8, !tbaa !47
  %47 = ptrtoint ptr %43 to i64
  %48 = ptrtoint ptr %46 to i64
  %49 = sub i64 %47, %48
  %50 = icmp sgt i64 %49, 4
  br i1 %50, label %51, label %100

51:                                               ; preds = %42
  %52 = load ptr, ptr %11, align 8, !tbaa !41
  %53 = getelementptr inbounds i8, ptr %52, i64 -4
  %54 = load ptr, ptr %7, align 8, !tbaa !39
  %55 = getelementptr inbounds nuw %struct.AVPacket, ptr %54, i32 0, i32 3
  %56 = load ptr, ptr %55, align 8, !tbaa !47
  %57 = ptrtoint ptr %53 to i64
  %58 = ptrtoint ptr %56 to i64
  %59 = sub i64 %57, %58
  %60 = trunc i64 %59 to i32
  %61 = load ptr, ptr %9, align 8, !tbaa !45
  store i32 %60, ptr %61, align 4, !tbaa !18
  %62 = load ptr, ptr %9, align 8, !tbaa !45
  %63 = load i32, ptr %62, align 4, !tbaa !18
  %64 = add nsw i32 %63, 64
  %65 = sext i32 %64 to i64
  %66 = call noalias ptr @av_malloc(i64 noundef %65)
  %67 = load ptr, ptr %8, align 8, !tbaa !42
  store ptr %66, ptr %67, align 8, !tbaa !41
  %68 = load ptr, ptr %8, align 8, !tbaa !42
  %69 = load ptr, ptr %68, align 8, !tbaa !41
  %70 = icmp ne ptr %69, null
  br i1 %70, label %72, label %71

71:                                               ; preds = %51
  store i32 -12, ptr %5, align 4
  store i32 1, ptr %14, align 4
  br label %103

72:                                               ; preds = %51
  %73 = load ptr, ptr %8, align 8, !tbaa !42
  %74 = load ptr, ptr %73, align 8, !tbaa !41
  %75 = load ptr, ptr %7, align 8, !tbaa !39
  %76 = getelementptr inbounds nuw %struct.AVPacket, ptr %75, i32 0, i32 3
  %77 = load ptr, ptr %76, align 8, !tbaa !47
  %78 = load ptr, ptr %9, align 8, !tbaa !45
  %79 = load i32, ptr %78, align 4, !tbaa !18
  %80 = sext i32 %79 to i64
  call void @llvm.memcpy.p0.p0.i64(ptr align 1 %74, ptr align 1 %77, i64 %80, i1 false)
  %81 = load ptr, ptr %10, align 8, !tbaa !16
  %82 = getelementptr inbounds nuw %struct.ExtractExtradataContext, ptr %81, i32 0, i32 4
  %83 = load i32, ptr %82, align 8, !tbaa !56
  %84 = icmp ne i32 %83, 0
  br i1 %84, label %85, label %99

85:                                               ; preds = %72
  %86 = load ptr, ptr %9, align 8, !tbaa !45
  %87 = load i32, ptr %86, align 4, !tbaa !18
  %88 = load ptr, ptr %7, align 8, !tbaa !39
  %89 = getelementptr inbounds nuw %struct.AVPacket, ptr %88, i32 0, i32 3
  %90 = load ptr, ptr %89, align 8, !tbaa !47
  %91 = sext i32 %87 to i64
  %92 = getelementptr inbounds i8, ptr %90, i64 %91
  store ptr %92, ptr %89, align 8, !tbaa !47
  %93 = load ptr, ptr %9, align 8, !tbaa !45
  %94 = load i32, ptr %93, align 4, !tbaa !18
  %95 = load ptr, ptr %7, align 8, !tbaa !39
  %96 = getelementptr inbounds nuw %struct.AVPacket, ptr %95, i32 0, i32 4
  %97 = load i32, ptr %96, align 8, !tbaa !49
  %98 = sub nsw i32 %97, %94
  store i32 %98, ptr %96, align 8, !tbaa !49
  br label %99

99:                                               ; preds = %85, %72
  br label %100

100:                                              ; preds = %99, %42
  br label %102

101:                                              ; preds = %39
  br label %29, !llvm.loop !65

102:                                              ; preds = %100, %29
  store i32 0, ptr %5, align 4
  store i32 1, ptr %14, align 4
  br label %103

103:                                              ; preds = %102, %71
  call void @llvm.lifetime.end.p0(i64 4, ptr %13) #9
  call void @llvm.lifetime.end.p0(i64 8, ptr %12) #9
  call void @llvm.lifetime.end.p0(i64 8, ptr %11) #9
  call void @llvm.lifetime.end.p0(i64 8, ptr %10) #9
  %104 = load i32, ptr %5, align 4
  ret i32 %104
}