; Function Attrs: nounwind uwtable
define internal range(i32 -12, 1) i32 @extract_extradata_mpeg4(ptr noundef readonly captures(none) %0, ptr noundef captures(none) %1, ptr noundef writeonly captures(none) %2, ptr noundef captures(none) %3) #1 {
  %5 = alloca i32, align 4
  %6 = getelementptr inbounds nuw i8, ptr %0, i64 16
  %7 = load ptr, ptr %6, align 8, !tbaa !4
  %8 = getelementptr inbounds nuw i8, ptr %1, i64 24
  %9 = load ptr, ptr %8, align 8, !tbaa !36
  %10 = getelementptr inbounds nuw i8, ptr %1, i64 32
  %11 = load i32, ptr %10, align 8, !tbaa !38
  %12 = sext i32 %11 to i64
  %13 = getelementptr inbounds i8, ptr %9, i64 %12
  call void @llvm.lifetime.start.p0(i64 4, ptr nonnull %5) #8
  store i32 -1, ptr %5, align 4, !tbaa !35
  br label %14

14:                                               ; preds = %16, %4
  %.025 = phi ptr [ %9, %4 ], [ %17, %16 ]
  %15 = icmp ult ptr %.025, %13
  br i1 %15, label %16, label %.loopexit

16:                                               ; preds = %14
  %17 = call ptr @avpriv_find_start_code(ptr noundef %.025, ptr noundef nonnull %13, ptr noundef nonnull %5) #8
  %18 = load i32, ptr %5, align 4, !tbaa !35
  switch i32 %18, label %14 [
    i32 438, label %19
    i32 435, label %19
  ]

19:                                               ; preds = %16, %16
  %20 = load ptr, ptr %8, align 8, !tbaa !36
  %21 = ptrtoint ptr %17 to i64
  %22 = ptrtoint ptr %20 to i64
  %23 = sub i64 %21, %22
  %24 = icmp sgt i64 %23, 4
  br i1 %24, label %25, label %.loopexit

25:                                               ; preds = %19
  %26 = getelementptr inbounds i8, ptr %17, i64 -4
  %27 = ptrtoint ptr %26 to i64
  %28 = sub i64 %27, %22
  %29 = trunc i64 %28 to i32
  store i32 %29, ptr %3, align 4, !tbaa !35
  %30 = shl i64 %28, 32
  %sext = add i64 %30, 274877906944
  %31 = ashr exact i64 %sext, 32
  %32 = call noalias ptr @av_malloc(i64 noundef %31) #8
  store ptr %32, ptr %2, align 8, !tbaa !34
  %.not = icmp eq ptr %32, null
  br i1 %.not, label %.loopexit, label %33

33:                                               ; preds = %25
  %34 = load ptr, ptr %8, align 8, !tbaa !36
  %35 = load i32, ptr %3, align 4, !tbaa !35
  %36 = sext i32 %35 to i64
  call void @llvm.memcpy.p0.p0.i64(ptr nonnull align 1 %32, ptr align 1 %34, i64 %36, i1 false)
  %37 = getelementptr inbounds nuw i8, ptr %7, i64 88
  %38 = load i32, ptr %37, align 8, !tbaa !49
  %.not28 = icmp eq i32 %38, 0
  br i1 %.not28, label %.loopexit, label %39

39:                                               ; preds = %33
  %40 = getelementptr inbounds i8, ptr %34, i64 %36
  store ptr %40, ptr %8, align 8, !tbaa !36
  %41 = load i32, ptr %10, align 8, !tbaa !38
  %42 = sub nsw i32 %41, %35
  store i32 %42, ptr %10, align 8, !tbaa !38
  br label %.loopexit

.loopexit:                                        ; preds = %14, %33, %39, %19, %25
  %.0 = phi i32 [ -12, %25 ], [ 0, %19 ], [ 0, %39 ], [ 0, %33 ], [ 0, %14 ]
  call void @llvm.lifetime.end.p0(i64 4, ptr nonnull %5) #8
  ret i32 %.0
}